target datalayout = "e-m:e-p270:32:32-p271:32:32-p272:64:64-i64:64-i128:128-f80:128-n8:16:32:64-S128"
target triple = "x86_64-pc-linux-gnu"

%struct.dt_pthread_mutex_t = type { %union.pthread_mutex_t }
%union.pthread_mutex_t = type { %struct.__pthread_mutex_s }
%struct.__pthread_mutex_s = type { i32, i32, i32, i32, i32, i16, i16, %struct.__pthread_internal_list }
%struct.__pthread_internal_list = type { ptr, ptr }
%struct.dt_dev_pixelpipe_t = type { %struct.dt_dev_pixelpipe_cache_t, i32, i64, ptr, i32, i32, float, i32, i32, [12 x i8], %struct.dt_iop_buffer_dsc_t, ptr, ptr, ptr, ptr, i32, i32, i32, i32, ptr, i64, i32, i32, float, float, float, i64, %struct.dt_pthread_mutex_t, %struct.dt_pthread_mutex_t, %struct.dt_pthread_mutex_t, i32, i32, i32, %struct.dt_dev_detail_mask_t, i32, i32, i32, i32, i32, i32, i32, i32, i32, i32, i32, i32, i32, i32, [8 x i8], %struct.dt_image_t, i32, ptr, i32, ptr, ptr, ptr, i32, ptr, i64, [8 x i8] }
%struct.dt_dev_pixelpipe_cache_t = type { i32, i64, i64, ptr, ptr, ptr, ptr, ptr, ptr, i64, i32, i64, i64, i32, i32, i32 }
%struct.dt_iop_buffer_dsc_t = type { i32, i32, i32, [6 x [6 x i8]], %struct.anon, [12 x i8], %struct.anon.0, [4 x float], i32, [12 x i8] }
%struct.anon = type { i16, i16 }
%struct.anon.0 = type { i32, [12 x i8], [4 x float] }
%struct.dt_dev_detail_mask_t = type { %struct.dt_iop_roi_t, i64, ptr }
%struct.dt_iop_roi_t = type { i32, i32, i32, i32, float }
%struct.dt_image_t = type { i32, i32, float, float, float, float, float, float, float, [64 x i8], [64 x i8], [128 x i8], [64 x i8], [64 x i8], [64 x i8], [64 x i8], i64, i32, %union.dt_image_correction_data_t, [64 x i8], [64 x i8], [64 x i8], [128 x i8], i32, [256 x i8], i32, i32, i32, i32, i32, i32, i32, i32, i32, i32, float, i32, i32, i32, i32, i32, i32, i64, i64, i64, i64, i32, [12 x i8], %struct.dt_iop_buffer_dsc_t, [9 x float], ptr, i32, i32, %struct.dt_image_raw_parameters_t, %struct.dt_image_geoloc_t, %struct._color_harmony_t, i16, [4 x i16], i32, i32, float, float, [4 x float], [4 x [3 x float]], [4 x float], ptr, ptr, i32, i32, [8 x i8] }
%union.dt_image_correction_data_t = type { %struct.anon.2 }
%struct.anon.2 = type { i32, float, [11 x float], [11 x float], [11 x float], [11 x float], [11 x float] }
%struct.dt_image_raw_parameters_t = type { i32 }
%struct.dt_image_geoloc_t = type { double, double, double }
%struct._color_harmony_t = type { i32, i32, i32 }
%struct.dt_dev_histogram_stats_t = type { i32, i64, i32, i32 }
%struct.dt_iop_module_t = type { i32, ptr, ptr, ptr, ptr, ptr, ptr, ptr, ptr, ptr, ptr, ptr, ptr, ptr, ptr, ptr, ptr, ptr, ptr, ptr, ptr, ptr, ptr, ptr, ptr, ptr, ptr, ptr, ptr, ptr, ptr, ptr, ptr, ptr, ptr, ptr, ptr, ptr, ptr, ptr, ptr, ptr, ptr, ptr, ptr, ptr, ptr, ptr, ptr, ptr, ptr, ptr, ptr, ptr, ptr, ptr, ptr, [20 x i8], i32, i32, i32, i32, i32, i32, i32, [8 x i8], [4 x float], [4 x float], [4 x float], [4 x float], [4 x float], [4 x float], ptr, %struct.dt_dev_histogram_stats_t, [4 x i32], i32, i32, ptr, i32, i32, ptr, ptr, i32, ptr, %struct.dt_pthread_mutex_t, ptr, ptr, ptr, ptr, %struct.anon.5, ptr, ptr, ptr, ptr, ptr, ptr, ptr, i32, ptr, ptr, ptr, ptr, ptr, ptr, ptr, i32, ptr, i32, [128 x i8], i32, ptr, ptr, i32, [12 x i8] }
%struct.anon.5 = type { %struct.anon.6, %struct.anon.7 }
%struct.anon.6 = type { ptr, ptr }
%struct.anon.7 = type { ptr, i32 }
%struct.dt_develop_t = type { i32, i32, i32, ptr, double, double, i32, i32, i32, i32, i32, double, i32, i32, i32, ptr, ptr, [8 x i8], %struct.dt_image_t, i32, i32, %struct.dt_pthread_mutex_t, i32, ptr, i32, ptr, i32, ptr, ptr, i32, ptr, ptr, ptr, ptr, i32, i32, ptr, ptr, ptr, ptr, i32, i32, i32, float, float, ptr, i32, %struct.anon.8, %struct.dt_dev_chroma_t, %struct.anon.11, %struct.anon.12, %struct.anon.13, %struct.anon.14, %struct.anon.15, %struct.anon.16, ptr, ptr, %struct.dt_dev_viewport_t, %struct.dt_dev_viewport_t, i32, i32, i32, ptr, [8 x i8] }
%struct.anon.8 = type { %struct.dt_dev_proxy_exposure_t, ptr, %struct.anon.9, %struct.anon.10 }
%struct.dt_dev_proxy_exposure_t = type { ptr, ptr, ptr, ptr }
%struct.anon.9 = type { ptr, ptr, ptr, ptr, ptr, ptr, ptr, ptr, ptr }
%struct.anon.10 = type { ptr, ptr, ptr, ptr, ptr }
%struct.dt_dev_chroma_t = type { ptr, ptr, [4 x double], [4 x double], [4 x double], i32 }
%struct.anon.11 = type { ptr, ptr, ptr }
%struct.anon.12 = type { ptr, ptr, i32, i32, float, float, i32 }
%struct.anon.13 = type { ptr, ptr, i32, i32, i32, float }
%struct.anon.14 = type { ptr }
%struct.anon.15 = type { ptr, i32 }
%struct.anon.16 = type { ptr, ptr, ptr }
%struct.dt_dev_viewport_t = type { ptr, i32, i32, i32, i32, i32, double, double, double, i32, i32, i32, float, float, float, ptr }

; Function Attrs: nounwind uwtable
define internal void @get_output_format(ptr noundef %0, ptr noundef %1, ptr noundef %2, ptr noundef %3, ptr noundef %4) #0 {
  %6 = alloca ptr, align 8
  %7 = alloca ptr, align 8
  %8 = alloca ptr, align 8
  %9 = alloca ptr, align 8
  %10 = alloca ptr, align 8
  %11 = alloca i32, align 4
  store ptr %0, ptr %6, align 8, !tbaa !103
  store ptr %1, ptr %7, align 8, !tbaa !6
  store ptr %2, ptr %8, align 8, !tbaa !94
  store ptr %3, ptr %9, align 8, !tbaa !192
  store ptr %4, ptr %10, align 8, !tbaa !136
  %12 = load ptr, ptr %6, align 8, !tbaa !103
  %13 = icmp ne ptr %12, null
  br i1 %13, label %14, label %22

14:                                               ; preds = %5
  %15 = load ptr, ptr %6, align 8, !tbaa !103
  %16 = getelementptr inbounds nuw %struct.dt_iop_module_t, ptr %15, i32 0, i32 14
  %17 = load ptr, ptr %16, align 16, !tbaa !200
  %18 = load ptr, ptr %6, align 8, !tbaa !103
  %19 = load ptr, ptr %7, align 8, !tbaa !6
  %20 = load ptr, ptr %8, align 8, !tbaa !94
  %21 = load ptr, ptr %10, align 8, !tbaa !136
  call void %17(ptr noundef %18, ptr noundef %19, ptr noundef %20, ptr noundef %21)
  br label %46

22:                                               ; preds = %5
  %23 = load ptr, ptr %10, align 8, !tbaa !136
  %24 = load ptr, ptr %7, align 8, !tbaa !6
  %25 = getelementptr inbounds nuw %struct.dt_dev_pixelpipe_t, ptr %24, i32 0, i32 49
  %26 = getelementptr inbounds nuw %struct.dt_image_t, ptr %25, i32 0, i32 48
  call void @llvm.memcpy.p0.p0.i64(ptr align 16 %23, ptr align 16 %26, i64 128, i1 false), !tbaa.struct !138
  %27 = load ptr, ptr %7, align 8, !tbaa !6
  %28 = getelementptr inbounds nuw %struct.dt_dev_pixelpipe_t, ptr %27, i32 0, i32 49
  %29 = call i32 @dt_image_is_raw(ptr noundef %28)
  %30 = icmp ne i32 %29, 0
  br i1 %30, label %46, label %31

31:                                               ; preds = %22
  call void @llvm.lifetime.start.p0(i64 4, ptr %11) #17
  store i32 0, ptr %11, align 4, !tbaa !11
  br label %32

32:                                               ; preds = %42, %31
  %33 = load i32, ptr %11, align 4, !tbaa !11
  %34 = icmp slt i32 %33, 4
  br i1 %34, label %36, label %35

35:                                               ; preds = %32
  call void @llvm.lifetime.end.p0(i64 4, ptr %11) #17
  br label %45

36:                                               ; preds = %32
  %37 = load ptr, ptr %10, align 8, !tbaa !136
  %38 = getelementptr inbounds nuw %struct.dt_iop_buffer_dsc_t, ptr %37, i32 0, i32 7
  %39 = load i32, ptr %11, align 4, !tbaa !11
  %40 = sext i32 %39 to i64
  %41 = getelementptr inbounds [4 x float], ptr %38, i64 0, i64 %40
  store float 1.000000e+00, ptr %41, align 4, !tbaa !194
  br label %42

42:                                               ; preds = %36
  %43 = load i32, ptr %11, align 4, !tbaa !11
  %44 = add nsw i32 %43, 1
  store i32 %44, ptr %11, align 4, !tbaa !11
  br label %32

45:                                               ; preds = %35
  br label %46

46:                                               ; preds = %14, %45, %22
  ret void
}

; Function Attrs: nounwind uwtable
define void @dt_dev_pixelpipe_set_input(ptr noundef %0, ptr noundef %1, ptr noundef %2, i32 noundef %3, i32 noundef %4, float noundef %5) #0 {
  %7 = alloca ptr, align 8
  %8 = alloca ptr, align 8
  %9 = alloca ptr, align 8
  %10 = alloca i32, align 4
  %11 = alloca i32, align 4
  %12 = alloca float, align 4
  store ptr %0, ptr %7, align 8, !tbaa !6
  store ptr %1, ptr %8, align 8, !tbaa !192
  store ptr %2, ptr %9, align 8, !tbaa !193
  store i32 %3, ptr %10, align 4, !tbaa !11
  store i32 %4, ptr %11, align 4, !tbaa !11
  store float %5, ptr %12, align 4, !tbaa !194
  %13 = load i32, ptr %10, align 4, !tbaa !11
  %14 = load ptr, ptr %7, align 8, !tbaa !6
  %15 = getelementptr inbounds nuw %struct.dt_dev_pixelpipe_t, ptr %14, i32 0, i32 4
  store i32 %13, ptr %15, align 16, !tbaa !158
  %16 = load i32, ptr %11, align 4, !tbaa !11
  %17 = load ptr, ptr %7, align 8, !tbaa !6
  %18 = getelementptr inbounds nuw %struct.dt_dev_pixelpipe_t, ptr %17, i32 0, i32 5
  store i32 %16, ptr %18, align 4, !tbaa !162
  %19 = load float, ptr %12, align 4, !tbaa !194
  %20 = load ptr, ptr %7, align 8, !tbaa !6
  %21 = getelementptr inbounds nuw %struct.dt_dev_pixelpipe_t, ptr %20, i32 0, i32 6
  store float %19, ptr %21, align 8, !tbaa !195
  %22 = load ptr, ptr %9, align 8, !tbaa !193
  %23 = load ptr, ptr %7, align 8, !tbaa !6
  %24 = getelementptr inbounds nuw %struct.dt_dev_pixelpipe_t, ptr %23, i32 0, i32 3
  store ptr %22, ptr %24, align 8, !tbaa !196
  %25 = load ptr, ptr %7, align 8, !tbaa !6
  %26 = getelementptr inbounds nuw %struct.dt_dev_pixelpipe_t, ptr %25, i32 0, i32 49
  %27 = load ptr, ptr %8, align 8, !tbaa !192
  %28 = getelementptr inbounds nuw %struct.dt_develop_t, ptr %27, i32 0, i32 18
  call void @llvm.memcpy.p0.p0.i64(ptr align 16 %26, ptr align 16 %28, i64 1856, i1 false), !tbaa.struct !197
  %29 = load ptr, ptr %7, align 8, !tbaa !6
  %30 = load ptr, ptr %8, align 8, !tbaa !192
  %31 = load ptr, ptr %7, align 8, !tbaa !6
  %32 = getelementptr inbounds nuw %struct.dt_dev_pixelpipe_t, ptr %31, i32 0, i32 10
  call void @get_output_format(ptr noundef null, ptr noundef %29, ptr noundef null, ptr noundef %30, ptr noundef %32)
  ret void
}