; Function Attrs: nounwind uwtable
define void @dt_dev_pixelpipe_set_input(ptr noundef initializes((136, 156), (176, 304), (640, 2496)) %0, ptr noundef readonly captures(none) %1, ptr noundef %2, i32 noundef %3, i32 noundef %4, float noundef %5) local_unnamed_addr #0 {
  %7 = getelementptr inbounds nuw i8, ptr %0, i64 144
  store i32 %3, ptr %7, align 16, !tbaa !139
  %8 = getelementptr inbounds nuw i8, ptr %0, i64 148
  store i32 %4, ptr %8, align 4, !tbaa !143
  %9 = getelementptr inbounds nuw i8, ptr %0, i64 152
  store float %5, ptr %9, align 8, !tbaa !162
  %10 = getelementptr inbounds nuw i8, ptr %0, i64 136
  store ptr %2, ptr %10, align 8, !tbaa !163
  %11 = getelementptr inbounds nuw i8, ptr %0, i64 640
  %12 = getelementptr inbounds nuw i8, ptr %1, i64 112
  tail call void @llvm.memcpy.p0.p0.i64(ptr noundef nonnull align 16 dereferenceable(1856) %11, ptr noundef nonnull align 16 dereferenceable(1856) %12, i64 1856, i1 false), !tbaa.struct !164
  %13 = getelementptr inbounds nuw i8, ptr %0, i64 176
  %14 = getelementptr inbounds nuw i8, ptr %1, i64 1600
  tail call void @llvm.memmove.p0.p0.i64(ptr noundef nonnull align 16 dereferenceable(128) %13, ptr noundef nonnull align 16 dereferenceable(128) %14, i64 128, i1 false)
  %15 = tail call i32 @dt_image_is_raw(ptr noundef nonnull %11) #27
  %.not13.i = icmp eq i32 %15, 0
  br i1 %.not13.i, label %.preheader.i, label %get_output_format.exit

.preheader.i:                                     ; preds = %6
  %16 = getelementptr inbounds nuw i8, ptr %0, i64 272
  br label %17

17:                                               ; preds = %17, %.preheader.i
  %indvars.iv.i = phi i64 [ 0, %.preheader.i ], [ %indvars.iv.next.i, %17 ]
  %18 = getelementptr inbounds nuw [4 x float], ptr %16, i64 0, i64 %indvars.iv.i
  store float 1.000000e+00, ptr %18, align 4, !tbaa !165
  %indvars.iv.next.i = add nuw nsw i64 %indvars.iv.i, 1
  %exitcond.not.i = icmp eq i64 %indvars.iv.next.i, 4
  br i1 %exitcond.not.i, label %get_output_format.exit, label %17

get_output_format.exit:                           ; preds = %17, %6
  ret void
}